(dp1
S'convertfile'
p2
Vsettings.ini
p3
sS'framesize'
p4
cwx._core
Size
p5
(I753
I627
tRp6
sS'optionsselectedpage'
p7
I0
sS'columnwidth'
p8
(lp9
I180
aI330
aI110
aI110
asS'adddirectory'
p10
VC:\u005cMusic\u005cflac\u005czzz - others\u005c.calibre
p11
sS'filename'
p12
Vmusiconvert.ini
p13
s.