(dp1
S'lamecbr'
p2
V192 kbit/s
p3
sS'lamevbr'
p4
VV2 (~ 190 kbit/s)
p5
sS'ingainrefdir'
p6
(lp7
VC:\u005cMusic\u005cflac\u005czzz - others\u005c.calibre
p8
asS'tagfields'
p9
(lp10
VARTIST
p11
aVTITLE
p12
aVALBUM
p13
aVDATE
p14
aVTRACKNUMBER
p15
aVTRACKTOTAL
p16
aVDISCNUMBER
p17
aVDISCTOTAL
p18
aVALBUMARTIST
p19
aVPERFORMER
p20
aVCOMPOSER
p21
asS'lamebitrate'
p22
V-V2
p23
sS'overwrite'
p24
I01
sS'indir'
p25
(lp26
g8
ag8
ag8
ag8
ag8
ag8
ag8
ag8
ag8
ag8
ag8
ag8
asS'outname'
p27
Vmp3
p28
sS'recursive'
p29
I01
sS'nrprocesses'
p30
NsS'codecnames'
p31
(Vflac
p32
Vmp3
p33
tp34
sS'inname'
p35
Vflac
p36
sS'metaflacpath'
p37
VC:\u005cProgram Files (x86)\u005cFLAC\u005cmetaflac.exe
p38
sS'files'
p39
(lp40
VC:\u005cMusic\u005cflac\u005czzz - others\u005c.calibre\u005c.calibre - 2002 - Kill the Logo\u005c01 - .calibre - E.L.I.T.E..flac
p41
aVC:\u005cMusic\u005cflac\u005czzz - others\u005c.calibre\u005c.calibre - 2002 - Kill the Logo\u005c02 - .calibre - Karma.flac
p42
aVC:\u005cMusic\u005cflac\u005czzz - others\u005c.calibre\u005c.calibre - 2002 - Kill the Logo\u005c03 - .calibre - Meritocracy.flac
p43
aVC:\u005cMusic\u005cflac\u005czzz - others\u005c.calibre\u005c.calibre - 2002 - Kill the Logo\u005c04 - .calibre - Dialogue.flac
p44
aVC:\u005cMusic\u005cflac\u005czzz - others\u005c.calibre\u005c.calibre - 2002 - Kill the Logo\u005c05 - .calibre - The Frontline.flac
p45
aVC:\u005cMusic\u005cflac\u005czzz - others\u005c.calibre\u005c.calibre - 2002 - Kill the Logo\u005c06 - .calibre - Calibre.flac
p46
aVC:\u005cMusic\u005cflac\u005czzz - others\u005c.calibre\u005c.calibre - 2002 - Kill the Logo\u005c07 - .calibre - Antidote.flac
p47
aVC:\u005cMusic\u005cflac\u005czzz - others\u005c.calibre\u005c.calibre - 2002 - Kill the Logo\u005c08 - .calibre - The Rapist.flac
p48
aVC:\u005cMusic\u005cflac\u005czzz - others\u005c.calibre\u005c.calibre - 2002 - Kill the Logo\u005c09 - .calibre - The Load Off.flac
p49
aVC:\u005cMusic\u005cflac\u005czzz - others\u005c.calibre\u005c.calibre - 2002 - Kill the Logo\u005c10 - .calibre - Imposter.flac
p50
aVC:\u005cMusic\u005cflac\u005czzz - others\u005c.calibre\u005c.calibre - 2002 - Kill the Logo\u005c11 - .calibre - Complex.flac
p51
aVC:\u005cMusic\u005cflac\u005czzz - others\u005c.calibre\u005c.calibre - 2002 - Kill the Logo\u005c12 - .calibre - Home of Titans.flac
p52
asS'flat'
p53
I00
sS'currentfile'
p54
Vsettings.ini
p55
sS'lameopts'
p56
V-V2
p57
sS'gain'
p58
Valbum
p59
sS'mp3gainpath'
p60
VC:\u005cProgram Files (x86)\u005cMP3Gain\u005cmp3gain.exe
p61
sS'lameabr'
p62
I192
sS'id3mapping'
p63
(dp64
VALBUM
p65
VTALB
p66
sVPERFORMER
p67
VTXXX PERFORMER
p68
sVDISCTOTAL
p69
VTXXX TOTALDISCS
p70
sVARTIST
p71
VTPE1
p72
sVTITLE
p73
VTIT2
p74
sVTRACKTOTAL
p75
VTXXX TOTALTRACKS
p76
sVALBUMARTIST
p77
VTPE2
p78
sVCOMPOSER
p79
VTCOM
p80
sVDATE
p81
VTYER
p82
sVTRACKNUMBER
p83
VTRCK
p84
sVDISCNUMBER
p85
VTPOS
p86
ssS'outdir'
p87
VC:\u005cPersonal\u005cconvertor\u005cout
p88
sS'lameextraopts'
p89
V
sS'ingaindirs'
p90
(lp91
VC:\u005cMusic\u005cflac\u005czzz - others\u005c.calibre\u005c.calibre - 2002 - Kill the Logo
p92
asS'flacpath'
p93
VC:\u005cProgram Files (x86)\u005cFLAC\u005cflac.exe
p94
sS'lamepath'
p95
VC:\u005cProgram Files (x86)\u005cLame\u005clame.exe
p96
s.